target datalayout = "e-m:e-p270:32:32-p271:32:32-p272:64:64-i64:64-i128:128-f80:128-n8:16:32:64-S128"
target triple = "x86_64-pc-linux-gnu"

%struct.AVFilterContext = type { ptr, ptr, ptr, ptr, ptr, i32, ptr, ptr, i32, ptr, ptr, i32, i32, ptr, ptr, ptr, ptr, i32, ptr, i32, i32 }
%struct.DeflickerContext = type { ptr, i32, i32, i32, i32, i32, i32, [4 x i32], [4 x i32], ptr, [129 x float], [129 x float], %struct.FFBufQueue, i32, ptr, ptr, ptr }
%struct.FFBufQueue = type { [129 x ptr], i16, i16 }

; Function Attrs: nounwind uwtable
define internal void @get_cm_factor(ptr noundef %0, ptr noundef %1) #1 {
  %3 = alloca ptr, align 8
  %4 = alloca ptr, align 8
  %5 = alloca ptr, align 8
  %6 = alloca i32, align 4
  store ptr %0, ptr %3, align 8, !tbaa !4
  store ptr %1, ptr %4, align 8, !tbaa !93
  call void @llvm.lifetime.start.p0(i64 8, ptr %5) #13
  %7 = load ptr, ptr %3, align 8, !tbaa !4
  %8 = getelementptr inbounds nuw %struct.AVFilterContext, ptr %7, i32 0, i32 9
  %9 = load ptr, ptr %8, align 8, !tbaa !9
  store ptr %9, ptr %5, align 8, !tbaa !22
  call void @llvm.lifetime.start.p0(i64 4, ptr %6) #13
  %10 = load ptr, ptr %4, align 8, !tbaa !93
  store float 0.000000e+00, ptr %10, align 4, !tbaa !46
  store i32 0, ptr %6, align 4, !tbaa !54
  br label %11

11:                                               ; preds = %40, %2
  %12 = load i32, ptr %6, align 4, !tbaa !54
  %13 = load ptr, ptr %5, align 8, !tbaa !22
  %14 = getelementptr inbounds nuw %struct.DeflickerContext, ptr %13, i32 0, i32 1
  %15 = load i32, ptr %14, align 8, !tbaa !42
  %16 = icmp slt i32 %12, %15
  br i1 %16, label %17, label %43

17:                                               ; preds = %11
  %18 = load ptr, ptr %5, align 8, !tbaa !22
  %19 = getelementptr inbounds nuw %struct.DeflickerContext, ptr %18, i32 0, i32 10
  %20 = load i32, ptr %6, align 4, !tbaa !54
  %21 = sext i32 %20 to i64
  %22 = getelementptr inbounds [129 x float], ptr %19, i64 0, i64 %21
  %23 = load float, ptr %22, align 4, !tbaa !46
  %24 = load ptr, ptr %5, align 8, !tbaa !22
  %25 = getelementptr inbounds nuw %struct.DeflickerContext, ptr %24, i32 0, i32 10
  %26 = load i32, ptr %6, align 4, !tbaa !54
  %27 = sext i32 %26 to i64
  %28 = getelementptr inbounds [129 x float], ptr %25, i64 0, i64 %27
  %29 = load float, ptr %28, align 4, !tbaa !46
  %30 = fmul nsz float %23, %29
  %31 = load ptr, ptr %5, align 8, !tbaa !22
  %32 = getelementptr inbounds nuw %struct.DeflickerContext, ptr %31, i32 0, i32 10
  %33 = load i32, ptr %6, align 4, !tbaa !54
  %34 = sext i32 %33 to i64
  %35 = getelementptr inbounds [129 x float], ptr %32, i64 0, i64 %34
  %36 = load float, ptr %35, align 4, !tbaa !46
  %37 = load ptr, ptr %4, align 8, !tbaa !93
  %38 = load float, ptr %37, align 4, !tbaa !46
  %39 = call nsz float @llvm.fmuladd.f32(float %30, float %36, float %38)
  store float %39, ptr %37, align 4, !tbaa !46
  br label %40

40:                                               ; preds = %17
  %41 = load i32, ptr %6, align 4, !tbaa !54
  %42 = add nsw i32 %41, 1
  store i32 %42, ptr %6, align 4, !tbaa !54
  br label %11, !llvm.loop !105

43:                                               ; preds = %11
  %44 = load ptr, ptr %5, align 8, !tbaa !22
  %45 = getelementptr inbounds nuw %struct.DeflickerContext, ptr %44, i32 0, i32 1
  %46 = load i32, ptr %45, align 8, !tbaa !42
  %47 = sitofp i32 %46 to float
  %48 = load ptr, ptr %4, align 8, !tbaa !93
  %49 = load float, ptr %48, align 4, !tbaa !46
  %50 = fdiv nsz float %49, %47
  store float %50, ptr %48, align 4, !tbaa !46
  %51 = load ptr, ptr %4, align 8, !tbaa !93
  %52 = load float, ptr %51, align 4, !tbaa !46
  %53 = call nsz float @cbrtf(float noundef %52) #15
  %54 = load ptr, ptr %4, align 8, !tbaa !93
  store float %53, ptr %54, align 4, !tbaa !46
  %55 = load ptr, ptr %5, align 8, !tbaa !22
  %56 = getelementptr inbounds nuw %struct.DeflickerContext, ptr %55, i32 0, i32 10
  %57 = getelementptr inbounds [129 x float], ptr %56, i64 0, i64 0
  %58 = load float, ptr %57, align 8, !tbaa !46
  %59 = load ptr, ptr %4, align 8, !tbaa !93
  %60 = load float, ptr %59, align 4, !tbaa !46
  %61 = fdiv nsz float %60, %58
  store float %61, ptr %59, align 4, !tbaa !46
  call void @llvm.lifetime.end.p0(i64 4, ptr %6) #13
  call void @llvm.lifetime.end.p0(i64 8, ptr %5) #13
  ret void
}